; ModuleID = '51/886.c'
source_filename = "51/886.c"
target datalayout = "e-m:e-p270:32:32-p271:32:32-p272:64:64-i64:64-f80:128-n8:16:32:64-S128"
target triple = "x86_64-pc-linux-gnu"

@.str = private unnamed_addr constant [5 x i8] c"%d%s\00", align 1
@.str.1 = private unnamed_addr constant [3 x i8] c"NO\00", align 1
@.str.2 = private unnamed_addr constant [4 x i8] c"%d\0A\00", align 1
@.str.3 = private unnamed_addr constant [4 x i8] c"%s\0A\00", align 1

; Function Attrs: noinline nounwind uwtable
define dso_local i32 @main() #0 {
  %1 = alloca i32, align 4
  %2 = alloca i32, align 4
  %3 = alloca [505 x i8], align 16
  %4 = alloca [6 x i8], align 1
  %5 = alloca [505 x [6 x i8]], align 16
  %6 = alloca [505 x i32], align 16
  %7 = alloca i32, align 4
  %8 = alloca i32, align 4
  %9 = alloca i32, align 4
  %10 = alloca i32, align 4
  %11 = alloca i32, align 4
  %12 = alloca i32, align 4
  store i32 0, i32* %1, align 4
  %13 = bitcast [505 x i32]* %6 to i8*
  call void @llvm.memset.p0i8.i64(i8* align 16 %13, i8 0, i64 2020, i1 false)
  %14 = getelementptr inbounds [505 x i8], [505 x i8]* %3, i64 0, i64 0
  %15 = call i32 (i8*, ...) @__isoc99_scanf(i8* getelementptr inbounds ([5 x i8], [5 x i8]* @.str, i64 0, i64 0), i32* %2, i8* %14)
  %16 = getelementptr inbounds [505 x i8], [505 x i8]* %3, i64 0, i64 0
  %17 = call i64 @strlen(i8* %16) #5
  %18 = trunc i64 %17 to i32
  store i32 %18, i32* %7, align 4
  store i32 1, i32* %8, align 4
  store i32 0, i32* %9, align 4
  br label %19

19:                                               ; preds = %32, %0
  %20 = load i32, i32* %9, align 4
  %21 = load i32, i32* %2, align 4
  %22 = icmp slt i32 %20, %21
  br i1 %22, label %23, label %35

23:                                               ; preds = %19
  %24 = load i32, i32* %9, align 4
  %25 = sext i32 %24 to i64
  %26 = getelementptr inbounds [505 x i8], [505 x i8]* %3, i64 0, i64 %25
  %27 = load i8, i8* %26, align 1
  %28 = getelementptr inbounds [505 x [6 x i8]], [505 x [6 x i8]]* %5, i64 0, i64 0
  %29 = load i32, i32* %9, align 4
  %30 = sext i32 %29 to i64
  %31 = getelementptr inbounds [6 x i8], [6 x i8]* %28, i64 0, i64 %30
  store i8 %27, i8* %31, align 1
  br label %32

32:                                               ; preds = %23
  %33 = load i32, i32* %9, align 4
  %34 = add nsw i32 %33, 1
  store i32 %34, i32* %9, align 4
  br label %19

35:                                               ; preds = %19
  %36 = getelementptr inbounds [505 x [6 x i8]], [505 x [6 x i8]]* %5, i64 0, i64 0
  %37 = load i32, i32* %2, align 4
  %38 = sext i32 %37 to i64
  %39 = getelementptr inbounds [6 x i8], [6 x i8]* %36, i64 0, i64 %38
  store i8 0, i8* %39, align 1
  %40 = getelementptr inbounds [505 x i32], [505 x i32]* %6, i64 0, i64 0
  store i32 1, i32* %40, align 16
  store i32 1, i32* %9, align 4
  br label %41

41:                                               ; preds = %112, %35
  %42 = load i32, i32* %9, align 4
  %43 = load i32, i32* %7, align 4
  %44 = load i32, i32* %2, align 4
  %45 = sub nsw i32 %43, %44
  %46 = icmp sle i32 %42, %45
  br i1 %46, label %47, label %115

47:                                               ; preds = %41
  %48 = load i32, i32* %9, align 4
  store i32 %48, i32* %10, align 4
  br label %49

49:                                               ; preds = %65, %47
  %50 = load i32, i32* %10, align 4
  %51 = load i32, i32* %9, align 4
  %52 = load i32, i32* %2, align 4
  %53 = add nsw i32 %51, %52
  %54 = icmp slt i32 %50, %53
  br i1 %54, label %55, label %68

55:                                               ; preds = %49
  %56 = load i32, i32* %10, align 4
  %57 = sext i32 %56 to i64
  %58 = getelementptr inbounds [505 x i8], [505 x i8]* %3, i64 0, i64 %57
  %59 = load i8, i8* %58, align 1
  %60 = load i32, i32* %10, align 4
  %61 = load i32, i32* %9, align 4
  %62 = sub nsw i32 %60, %61
  %63 = sext i32 %62 to i64
  %64 = getelementptr inbounds [6 x i8], [6 x i8]* %4, i64 0, i64 %63
  store i8 %59, i8* %64, align 1
  br label %65

65:                                               ; preds = %55
  %66 = load i32, i32* %10, align 4
  %67 = add nsw i32 %66, 1
  store i32 %67, i32* %10, align 4
  br label %49

68:                                               ; preds = %49
  %69 = load i32, i32* %2, align 4
  %70 = sext i32 %69 to i64
  %71 = getelementptr inbounds [6 x i8], [6 x i8]* %4, i64 0, i64 %70
  store i8 0, i8* %71, align 1
  store i32 0, i32* %11, align 4
  br label %72

72:                                               ; preds = %86, %68
  %73 = load i32, i32* %11, align 4
  %74 = load i32, i32* %8, align 4
  %75 = icmp slt i32 %73, %74
  br i1 %75, label %76, label %84

76:                                               ; preds = %72
  %77 = getelementptr inbounds [6 x i8], [6 x i8]* %4, i64 0, i64 0
  %78 = load i32, i32* %11, align 4
  %79 = sext i32 %78 to i64
  %80 = getelementptr inbounds [505 x [6 x i8]], [505 x [6 x i8]]* %5, i64 0, i64 %79
  %81 = getelementptr inbounds [6 x i8], [6 x i8]* %80, i64 0, i64 0
  %82 = call i32 @strcmp(i8* %77, i8* %81) #5
  %83 = icmp ne i32 %82, 0
  br label %84

84:                                               ; preds = %76, %72
  %85 = phi i1 [ false, %72 ], [ %83, %76 ]
  br i1 %85, label %86, label %89

86:                                               ; preds = %84
  %87 = load i32, i32* %11, align 4
  %88 = add nsw i32 %87, 1
  store i32 %88, i32* %11, align 4
  br label %72

89:                                               ; preds = %84
  %90 = load i32, i32* %11, align 4
  %91 = load i32, i32* %8, align 4
  %92 = icmp eq i32 %90, %91
  br i1 %92, label %93, label %105

93:                                               ; preds = %89
  %94 = load i32, i32* %8, align 4
  %95 = sext i32 %94 to i64
  %96 = getelementptr inbounds [505 x [6 x i8]], [505 x [6 x i8]]* %5, i64 0, i64 %95
  %97 = getelementptr inbounds [6 x i8], [6 x i8]* %96, i64 0, i64 0
  %98 = getelementptr inbounds [6 x i8], [6 x i8]* %4, i64 0, i64 0
  %99 = call i8* @strcpy(i8* %97, i8* %98) #6
  %100 = load i32, i32* %8, align 4
  %101 = sext i32 %100 to i64
  %102 = getelementptr inbounds [505 x i32], [505 x i32]* %6, i64 0, i64 %101
  store i32 1, i32* %102, align 4
  %103 = load i32, i32* %8, align 4
  %104 = add nsw i32 %103, 1
  store i32 %104, i32* %8, align 4
  br label %111

105:                                              ; preds = %89
  %106 = load i32, i32* %11, align 4
  %107 = sext i32 %106 to i64
  %108 = getelementptr inbounds [505 x i32], [505 x i32]* %6, i64 0, i64 %107
  %109 = load i32, i32* %108, align 4
  %110 = add nsw i32 %109, 1
  store i32 %110, i32* %108, align 4
  br label %111

111:                                              ; preds = %105, %93
  br label %112

112:                                              ; preds = %111
  %113 = load i32, i32* %9, align 4
  %114 = add nsw i32 %113, 1
  store i32 %114, i32* %9, align 4
  br label %41

115:                                              ; preds = %41
  store i32 1, i32* %12, align 4
  store i32 0, i32* %9, align 4
  br label %116

116:                                              ; preds = %133, %115
  %117 = load i32, i32* %9, align 4
  %118 = load i32, i32* %8, align 4
  %119 = icmp slt i32 %117, %118
  br i1 %119, label %120, label %136

120:                                              ; preds = %116
  %121 = load i32, i32* %9, align 4
  %122 = sext i32 %121 to i64
  %123 = getelementptr inbounds [505 x i32], [505 x i32]* %6, i64 0, i64 %122
  %124 = load i32, i32* %123, align 4
  %125 = load i32, i32* %12, align 4
  %126 = icmp sgt i32 %124, %125
  br i1 %126, label %127, label %132

127:                                              ; preds = %120
  %128 = load i32, i32* %9, align 4
  %129 = sext i32 %128 to i64
  %130 = getelementptr inbounds [505 x i32], [505 x i32]* %6, i64 0, i64 %129
  %131 = load i32, i32* %130, align 4
  store i32 %131, i32* %12, align 4
  br label %132

132:                                              ; preds = %127, %120
  br label %133

133:                                              ; preds = %132
  %134 = load i32, i32* %9, align 4
  %135 = add nsw i32 %134, 1
  store i32 %135, i32* %9, align 4
  br label %116

136:                                              ; preds = %116
  %137 = load i32, i32* %12, align 4
  %138 = icmp eq i32 %137, 1
  br i1 %138, label %139, label %141

139:                                              ; preds = %136
  %140 = call i32 (i8*, ...) @printf(i8* getelementptr inbounds ([3 x i8], [3 x i8]* @.str.1, i64 0, i64 0))
  br label %166

141:                                              ; preds = %136
  %142 = load i32, i32* %12, align 4
  %143 = call i32 (i8*, ...) @printf(i8* getelementptr inbounds ([4 x i8], [4 x i8]* @.str.2, i64 0, i64 0), i32 %142)
  store i32 0, i32* %9, align 4
  br label %144

144:                                              ; preds = %162, %141
  %145 = load i32, i32* %9, align 4
  %146 = load i32, i32* %8, align 4
  %147 = icmp slt i32 %145, %146
  br i1 %147, label %148, label %165

148:                                              ; preds = %144
  %149 = load i32, i32* %9, align 4
  %150 = sext i32 %149 to i64
  %151 = getelementptr inbounds [505 x i32], [505 x i32]* %6, i64 0, i64 %150
  %152 = load i32, i32* %151, align 4
  %153 = load i32, i32* %12, align 4
  %154 = icmp eq i32 %152, %153
  br i1 %154, label %155, label %161

155:                                              ; preds = %148
  %156 = load i32, i32* %9, align 4
  %157 = sext i32 %156 to i64
  %158 = getelementptr inbounds [505 x [6 x i8]], [505 x [6 x i8]]* %5, i64 0, i64 %157
  %159 = getelementptr inbounds [6 x i8], [6 x i8]* %158, i64 0, i64 0
  %160 = call i32 (i8*, ...) @printf(i8* getelementptr inbounds ([4 x i8], [4 x i8]* @.str.3, i64 0, i64 0), i8* %159)
  br label %161

161:                                              ; preds = %155, %148
  br label %162

162:                                              ; preds = %161
  %163 = load i32, i32* %9, align 4
  %164 = add nsw i32 %163, 1
  store i32 %164, i32* %9, align 4
  br label %144

165:                                              ; preds = %144
  br label %166

166:                                              ; preds = %165, %139
  ret i32 0
}

; Function Attrs: argmemonly nounwind willreturn
declare void @llvm.memset.p0i8.i64(i8* nocapture writeonly, i8, i64, i1 immarg) #1

declare dso_local i32 @__isoc99_scanf(i8*, ...) #2

; Function Attrs: nounwind readonly
declare dso_local i64 @strlen(i8*) #3

; Function Attrs: nounwind readonly
declare dso_local i32 @strcmp(i8*, i8*) #3

; Function Attrs: nounwind
declare dso_local i8* @strcpy(i8*, i8*) #4

declare dso_local i32 @printf(i8*, ...) #2


!llvm.module.flags = !{!0}
!llvm.ident = !{!1}

!0 = !{i32 1, !"wchar_size", i32 4}
!1 = !{!"clang version 10.0.0-4ubuntu1 "}
